target datalayout = "e-m:e-p270:32:32-p271:32:32-p272:64:64-i64:64-i128:128-f80:128-n8:16:32:64-S128"
target triple = "x86_64-pc-linux-gnu"

%struct.pmix_class_t = type { ptr, ptr, ptr, ptr, i32, i32, ptr, ptr, i64 }
%struct.pmix_list_t = type { %struct.pmix_object_t, %struct.pmix_list_item_t, i64 }
%struct.pmix_object_t = type { %union.pthread_mutex_t, ptr, i32, %struct.pmix_tma }
%union.pthread_mutex_t = type { %struct.__pthread_mutex_s }
%struct.__pthread_mutex_s = type { i32, i32, i32, i32, i32, i16, i16, %struct.__pthread_internal_list }
%struct.__pthread_internal_list = type { ptr, ptr }
%struct.pmix_tma = type { ptr, ptr, ptr, ptr, ptr, ptr, ptr, ptr }
%struct.pmix_list_item_t = type { %struct.pmix_object_t, ptr, ptr, i32 }
%struct.prte_process_info_t = type { %struct.pmix_proc, %struct.pmix_proc, ptr, %struct.pmix_proc, i32, i32, i32, ptr, ptr, i32, i8, ptr, i16, ptr, ptr, i8, ptr, i8 }
%struct.pmix_proc = type { [256 x i8], i32 }
%struct.timeval = type { i64, i64 }
%struct.prte_state_caddy_t = type { %struct.pmix_object_t, %struct.event, ptr, i32, %struct.pmix_proc, i32 }
%struct.event = type { %struct.event_callback, %union.anon.0, i32, ptr, %union.anon.2, i16, i16, %struct.timeval }
%struct.event_callback = type { %struct.anon, i16, i8, i8, %union.anon, ptr }
%struct.anon = type { ptr, ptr }
%union.anon = type { ptr }
%union.anon.0 = type { %struct.anon.1 }
%struct.anon.1 = type { ptr, ptr }
%union.anon.2 = type { %struct.anon.3 }
%struct.anon.3 = type { %struct.anon.4, %struct.timeval }
%struct.anon.4 = type { ptr, ptr }
%struct.prte_job_t = type { %struct.pmix_list_item_t, i32, ptr, ptr, [256 x i8], ptr, i32, i32, ptr, ptr, i32, i32, i32, i32, ptr, ptr, ptr, i32, i32, i32, i32, i32, i32, i32, %struct.pmix_proc, i32, i16, %struct.pmix_list_t, %struct.pmix_data_buffer, %struct.pmix_list_t, [256 x i8], i32, ptr, %struct.pmix_cli_result_t }
%struct.pmix_data_buffer = type { ptr, ptr, ptr, i64, i64 }
%struct.pmix_cli_result_t = type { %struct.pmix_object_t, %struct.pmix_list_t, ptr }
%struct.pmix_value = type { i16, %union.anon.7 }
%union.anon.7 = type { %struct.pmix_envar_t }
%struct.pmix_envar_t = type { ptr, ptr, i8 }
%struct.pmix_info = type { [512 x i8], i32, %struct.pmix_value }

@.str = private unnamed_addr constant [37 x i8] c"PRTE ERROR: %s in file %s at line %d\00", align 1
@.str.1 = private unnamed_addr constant [12 x i8] c"state_dvm.c\00", align 1
@prte_process_info = external global %struct.prte_process_info_t, align 8
@.str.4 = private unnamed_addr constant [21 x i8] c"pthread_mutex_lock()\00", align 1
@.str.8 = private unnamed_addr constant [13 x i8] c"pmix.evrange\00", align 1
@.str.9 = private unnamed_addr constant [12 x i8] c"pmix.nspace\00", align 1
@.str.10 = private unnamed_addr constant [14 x i8] c"pmix.evnondef\00", align 1
@.str.11 = private unnamed_addr constant [14 x i8] c"pmix.evtstamp\00", align 1
@.str.12 = private unnamed_addr constant [22 x i8] c"prte.notify.donotloop\00", align 1

; Function Attrs: inlinehint nounwind uwtable
define internal void @pmix_tma_free(ptr noundef %0, ptr noundef %1) #3 {
  %3 = alloca ptr, align 8
  %4 = alloca ptr, align 8
  store ptr %0, ptr %3, align 8, !tbaa !36
  store ptr %1, ptr %4, align 8, !tbaa !19
  %5 = load ptr, ptr %3, align 8, !tbaa !36
  %6 = icmp ne ptr null, %5
  br i1 %6, label %7, label %13

7:                                                ; preds = %2
  %8 = load ptr, ptr %3, align 8, !tbaa !36
  %9 = getelementptr inbounds nuw %struct.pmix_tma, ptr %8, i32 0, i32 5
  %10 = load ptr, ptr %9, align 8, !tbaa !195
  %11 = load ptr, ptr %3, align 8, !tbaa !36
  %12 = load ptr, ptr %4, align 8, !tbaa !19
  call void %10(ptr noundef %11, ptr noundef %12)
  br label %15

13:                                               ; preds = %2
  %14 = load ptr, ptr %4, align 8, !tbaa !19
  call void @free(ptr noundef %14) #13
  br label %15

15:                                               ; preds = %13, %7
  ret void
}

; Function Attrs: inlinehint nounwind uwtable
define internal void @pmix_obj_run_destructors(ptr noundef %0) #3 {
  %2 = alloca ptr, align 8
  %3 = alloca ptr, align 8
  store ptr %0, ptr %2, align 8, !tbaa !31
  call void @llvm.lifetime.start.p0(i64 8, ptr %3) #13
  %4 = load ptr, ptr %2, align 8, !tbaa !31
  %5 = getelementptr inbounds nuw %struct.pmix_object_t, ptr %4, i32 0, i32 1
  %6 = load ptr, ptr %5, align 8, !tbaa !13
  %7 = getelementptr inbounds nuw %struct.pmix_class_t, ptr %6, i32 0, i32 7
  %8 = load ptr, ptr %7, align 8, !tbaa !193
  store ptr %8, ptr %3, align 8, !tbaa !19
  br label %9

9:                                                ; preds = %13, %1
  %10 = load ptr, ptr %3, align 8, !tbaa !19
  %11 = load ptr, ptr %10, align 8, !tbaa !19
  %12 = icmp ne ptr null, %11
  br i1 %12, label %13, label %19

13:                                               ; preds = %9
  %14 = load ptr, ptr %3, align 8, !tbaa !19
  %15 = load ptr, ptr %14, align 8, !tbaa !19
  %16 = load ptr, ptr %2, align 8, !tbaa !31
  call void %15(ptr noundef %16)
  %17 = load ptr, ptr %3, align 8, !tbaa !19
  %18 = getelementptr inbounds nuw ptr, ptr %17, i32 1
  store ptr %18, ptr %3, align 8, !tbaa !19
  br label %9, !llvm.loop !194

19:                                               ; preds = %9
  call void @llvm.lifetime.end.p0(i64 8, ptr %3) #13
  ret void
}

; Function Attrs: alwaysinline nounwind uwtable
define internal i32 @pmix_obj_update(ptr noundef %0, i32 noundef %1) #6 {
  %3 = alloca ptr, align 8
  %4 = alloca i32, align 4
  %5 = alloca i32, align 4
  store ptr %0, ptr %3, align 8, !tbaa !31
  store i32 %1, ptr %4, align 4, !tbaa !3
  call void @llvm.lifetime.start.p0(i64 4, ptr %5) #13
  %6 = load ptr, ptr %3, align 8, !tbaa !31
  %7 = getelementptr inbounds nuw %struct.pmix_object_t, ptr %6, i32 0, i32 0
  %8 = call i32 @pthread_mutex_lock(ptr noundef %7) #13
  store i32 %8, ptr %5, align 4, !tbaa !3
  %9 = load i32, ptr %5, align 4, !tbaa !3
  %10 = icmp eq i32 %9, 35
  br i1 %10, label %11, label %14

11:                                               ; preds = %2
  %12 = load i32, ptr %5, align 4, !tbaa !3
  %13 = call ptr @__errno_location() #15
  store i32 %12, ptr %13, align 4, !tbaa !3
  call void @perror(ptr noundef @.str.4)
  call void @abort() #16
  unreachable

14:                                               ; preds = %2
  %15 = load i32, ptr %4, align 4, !tbaa !3
  %16 = load ptr, ptr %3, align 8, !tbaa !31
  %17 = getelementptr inbounds nuw %struct.pmix_object_t, ptr %16, i32 0, i32 2
  %18 = load i32, ptr %17, align 8, !tbaa !16
  %19 = add nsw i32 %18, %15
  store i32 %19, ptr %17, align 8, !tbaa !16
  store i32 %19, ptr %5, align 4, !tbaa !3
  %20 = load ptr, ptr %3, align 8, !tbaa !31
  %21 = getelementptr inbounds nuw %struct.pmix_object_t, ptr %20, i32 0, i32 0
  %22 = call i32 @pthread_mutex_unlock(ptr noundef %21) #13
  %23 = load i32, ptr %5, align 4, !tbaa !3
  call void @llvm.lifetime.end.p0(i64 4, ptr %5) #13
  ret i32 %23
}

; Function Attrs: nounwind uwtable
define internal void @job_started(i32 noundef %0, i16 noundef signext %1, ptr noundef %2) #0 {
  %4 = alloca i32, align 4
  %5 = alloca i16, align 2
  %6 = alloca ptr, align 8
  %7 = alloca ptr, align 8
  %8 = alloca ptr, align 8
  %9 = alloca ptr, align 8
  %10 = alloca i64, align 8
  %11 = alloca ptr, align 8
  %12 = alloca i32, align 4
  %13 = alloca ptr, align 8
  store i32 %0, ptr %4, align 4, !tbaa !3
  store i16 %1, ptr %5, align 2, !tbaa !48
  store ptr %2, ptr %6, align 8, !tbaa !19
  call void @llvm.lifetime.start.p0(i64 8, ptr %7) #13
  %14 = load ptr, ptr %6, align 8, !tbaa !19
  store ptr %14, ptr %7, align 8, !tbaa !19
  call void @llvm.lifetime.start.p0(i64 8, ptr %8) #13
  %15 = load ptr, ptr %7, align 8, !tbaa !19
  %16 = getelementptr inbounds nuw %struct.prte_state_caddy_t, ptr %15, i32 0, i32 2
  %17 = load ptr, ptr %16, align 8, !tbaa !52
  store ptr %17, ptr %8, align 8, !tbaa !19
  call void @llvm.lifetime.start.p0(i64 8, ptr %9) #13
  call void @llvm.lifetime.start.p0(i64 8, ptr %10) #13
  call void @llvm.lifetime.start.p0(i64 8, ptr %11) #13
  %18 = load ptr, ptr %8, align 8, !tbaa !19
  %19 = getelementptr inbounds nuw %struct.prte_job_t, ptr %18, i32 0, i32 27
  %20 = call zeroext i1 @prte_get_attribute(ptr noundef %19, i16 noundef zeroext 243, ptr noundef null, i16 noundef zeroext 1)
  br i1 %20, label %21, label %65

21:                                               ; preds = %3
  store ptr null, ptr %11, align 8, !tbaa !110
  %22 = load ptr, ptr %8, align 8, !tbaa !19
  %23 = getelementptr inbounds nuw %struct.prte_job_t, ptr %22, i32 0, i32 27
  %24 = call zeroext i1 @prte_get_attribute(ptr noundef %23, i16 noundef zeroext 240, ptr noundef %11, i16 noundef zeroext 22)
  br i1 %24, label %25, label %28

25:                                               ; preds = %21
  %26 = load ptr, ptr %11, align 8, !tbaa !110
  %27 = icmp eq ptr null, %26
  br i1 %27, label %28, label %33

28:                                               ; preds = %25, %21
  br label %29

29:                                               ; preds = %28
  %30 = call ptr @prte_strerror(i32 noundef -13)
  call void (i32, ptr, ...) @pmix_output(i32 noundef 0, ptr noundef @.str, ptr noundef %30, ptr noundef @.str.1, i32 noundef 389)
  br label %31

31:                                               ; preds = %29
  br label %32

32:                                               ; preds = %31
  store i32 1, ptr %12, align 4
  br label %88

33:                                               ; preds = %25
  %34 = call i64 @time(ptr noundef null) #13
  store i64 %34, ptr %10, align 8, !tbaa !111
  %35 = call ptr @PMIx_Info_create(i64 noundef 5)
  store ptr %35, ptr %9, align 8, !tbaa !112
  %36 = load ptr, ptr %9, align 8, !tbaa !112
  %37 = getelementptr inbounds %struct.pmix_info, ptr %36, i64 0
  %38 = load ptr, ptr %11, align 8, !tbaa !110
  %39 = call i32 @PMIx_Info_load(ptr noundef %37, ptr noundef @.str.8, ptr noundef %38, i16 noundef zeroext 22)
  br label %40

40:                                               ; preds = %33
  %41 = load ptr, ptr %11, align 8, !tbaa !110
  call void @PMIx_Proc_free(ptr noundef %41, i64 noundef 1)
  store ptr null, ptr %11, align 8, !tbaa !110
  br label %42

42:                                               ; preds = %40
  br label %43

43:                                               ; preds = %42
  %44 = load ptr, ptr %9, align 8, !tbaa !112
  %45 = getelementptr inbounds %struct.pmix_info, ptr %44, i64 1
  %46 = load ptr, ptr %8, align 8, !tbaa !19
  %47 = getelementptr inbounds nuw %struct.prte_job_t, ptr %46, i32 0, i32 4
  %48 = getelementptr inbounds [256 x i8], ptr %47, i64 0, i64 0
  %49 = call i32 @PMIx_Info_load(ptr noundef %45, ptr noundef @.str.9, ptr noundef %48, i16 noundef zeroext 3)
  %50 = load ptr, ptr %9, align 8, !tbaa !112
  %51 = getelementptr inbounds %struct.pmix_info, ptr %50, i64 2
  %52 = call i32 @PMIx_Info_load(ptr noundef %51, ptr noundef @.str.10, ptr noundef null, i16 noundef zeroext 1)
  %53 = load ptr, ptr %9, align 8, !tbaa !112
  %54 = getelementptr inbounds %struct.pmix_info, ptr %53, i64 3
  %55 = call i32 @PMIx_Info_load(ptr noundef %54, ptr noundef @.str.11, ptr noundef %10, i16 noundef zeroext 19)
  %56 = load ptr, ptr %9, align 8, !tbaa !112
  %57 = getelementptr inbounds %struct.pmix_info, ptr %56, i64 4
  %58 = call i32 @PMIx_Info_load(ptr noundef %57, ptr noundef @.str.12, ptr noundef null, i16 noundef zeroext 1)
  %59 = load ptr, ptr %9, align 8, !tbaa !112
  %60 = call i32 @PMIx_Notify_event(i32 noundef -191, ptr noundef @prte_process_info, i8 noundef zeroext 6, ptr noundef %59, i64 noundef 5, ptr noundef null, ptr noundef null)
  br label %61

61:                                               ; preds = %43
  %62 = load ptr, ptr %9, align 8, !tbaa !112
  call void @PMIx_Info_free(ptr noundef %62, i64 noundef 5)
  store ptr null, ptr %9, align 8, !tbaa !112
  br label %63

63:                                               ; preds = %61
  br label %64

64:                                               ; preds = %63
  br label %65

65:                                               ; preds = %64, %3
  br label %66

66:                                               ; preds = %65
  call void @llvm.lifetime.start.p0(i64 8, ptr %13) #13
  %67 = load ptr, ptr %7, align 8, !tbaa !19
  store ptr %67, ptr %13, align 8, !tbaa !31
  %68 = load ptr, ptr %13, align 8, !tbaa !31
  %69 = call i32 @pmix_obj_update(ptr noundef %68, i32 noundef -1)
  %70 = icmp eq i32 0, %69
  br i1 %70, label %71, label %85

71:                                               ; preds = %66
  %72 = load ptr, ptr %13, align 8, !tbaa !31
  call void @pmix_obj_run_destructors(ptr noundef %72)
  %73 = load ptr, ptr %13, align 8, !tbaa !31
  %74 = getelementptr inbounds nuw %struct.pmix_object_t, ptr %73, i32 0, i32 3
  %75 = getelementptr inbounds nuw %struct.pmix_tma, ptr %74, i32 0, i32 5
  %76 = load ptr, ptr %75, align 8, !tbaa !33
  %77 = icmp ne ptr null, %76
  br i1 %77, label %78, label %82

78:                                               ; preds = %71
  %79 = load ptr, ptr %13, align 8, !tbaa !31
  %80 = getelementptr inbounds nuw %struct.pmix_object_t, ptr %79, i32 0, i32 3
  %81 = load ptr, ptr %7, align 8, !tbaa !19
  call void @pmix_tma_free(ptr noundef %80, ptr noundef %81)
  br label %84

82:                                               ; preds = %71
  %83 = load ptr, ptr %7, align 8, !tbaa !19
  call void @free(ptr noundef %83) #13
  br label %84

84:                                               ; preds = %82, %78
  store ptr null, ptr %7, align 8, !tbaa !19
  br label %85

85:                                               ; preds = %84, %66
  call void @llvm.lifetime.end.p0(i64 8, ptr %13) #13
  br label %86

86:                                               ; preds = %85
  br label %87

87:                                               ; preds = %86
  store i32 0, ptr %12, align 4
  br label %88

88:                                               ; preds = %87, %32
  call void @llvm.lifetime.end.p0(i64 8, ptr %11) #13
  call void @llvm.lifetime.end.p0(i64 8, ptr %10) #13
  call void @llvm.lifetime.end.p0(i64 8, ptr %9) #13
  call void @llvm.lifetime.end.p0(i64 8, ptr %8) #13
  call void @llvm.lifetime.end.p0(i64 8, ptr %7) #13
  %89 = load i32, ptr %12, align 4
  switch i32 %89, label %91 [
    i32 0, label %90
    i32 1, label %90
  ]

90:                                               ; preds = %88, %88
  ret void

91:                                               ; preds = %88
  unreachable
}