; Function Attrs: nounwind uwtable
define internal void @job_started(i32 %0, i16 signext %1, ptr noundef %2) #0 {
  %4 = alloca i64, align 8
  %5 = alloca ptr, align 8
  %6 = getelementptr inbounds nuw i8, ptr %2, i64 248
  %7 = load ptr, ptr %6, align 8, !tbaa !43
  call void @llvm.lifetime.start.p0(i64 8, ptr nonnull %4) #16
  call void @llvm.lifetime.start.p0(i64 8, ptr nonnull %5) #16
  %8 = getelementptr inbounds nuw i8, ptr %7, i64 792
  %9 = tail call zeroext i1 @prte_get_attribute(ptr noundef nonnull %8, i16 noundef zeroext 243, ptr noundef null, i16 noundef zeroext 1) #16
  br i1 %9, label %10, label %32

10:                                               ; preds = %3
  store ptr null, ptr %5, align 8, !tbaa !97
  %11 = call zeroext i1 @prte_get_attribute(ptr noundef nonnull %8, i16 noundef zeroext 240, ptr noundef nonnull %5, i16 noundef zeroext 22) #16
  %12 = load ptr, ptr %5, align 8
  %13 = icmp ne ptr %12, null
  %or.cond.not = select i1 %11, i1 %13, i1 false
  br i1 %or.cond.not, label %16, label %14

14:                                               ; preds = %10
  %15 = call ptr @prte_strerror(i32 noundef -13) #16
  call void (i32, ptr, ...) @pmix_output(i32 noundef 0, ptr noundef nonnull @.str, ptr noundef %15, ptr noundef nonnull @.str.1, i32 noundef 389) #16
  br label %56

16:                                               ; preds = %10
  %17 = call i64 @time(ptr noundef null) #16
  store i64 %17, ptr %4, align 8, !tbaa !98
  %18 = call ptr @PMIx_Info_create(i64 noundef 5) #16
  %19 = load ptr, ptr %5, align 8, !tbaa !97
  %20 = call i32 @PMIx_Info_load(ptr noundef %18, ptr noundef nonnull @.str.8, ptr noundef %19, i16 noundef zeroext 22) #16
  %21 = load ptr, ptr %5, align 8, !tbaa !97
  call void @PMIx_Proc_free(ptr noundef %21, i64 noundef 1) #16
  store ptr null, ptr %5, align 8, !tbaa !97
  %22 = getelementptr inbounds nuw i8, ptr %18, i64 552
  %23 = getelementptr inbounds nuw i8, ptr %7, i64 168
  %24 = call i32 @PMIx_Info_load(ptr noundef nonnull %22, ptr noundef nonnull @.str.9, ptr noundef nonnull %23, i16 noundef zeroext 3) #16
  %25 = getelementptr inbounds nuw i8, ptr %18, i64 1104
  %26 = call i32 @PMIx_Info_load(ptr noundef nonnull %25, ptr noundef nonnull @.str.10, ptr noundef null, i16 noundef zeroext 1) #16
  %27 = getelementptr inbounds nuw i8, ptr %18, i64 1656
  %28 = call i32 @PMIx_Info_load(ptr noundef nonnull %27, ptr noundef nonnull @.str.11, ptr noundef nonnull %4, i16 noundef zeroext 19) #16
  %29 = getelementptr inbounds nuw i8, ptr %18, i64 2208
  %30 = call i32 @PMIx_Info_load(ptr noundef nonnull %29, ptr noundef nonnull @.str.12, ptr noundef null, i16 noundef zeroext 1) #16
  %31 = call i32 @PMIx_Notify_event(i32 noundef -191, ptr noundef nonnull @prte_process_info, i8 noundef zeroext 6, ptr noundef %18, i64 noundef 5, ptr noundef null, ptr noundef null) #16
  call void @PMIx_Info_free(ptr noundef %18, i64 noundef 5) #16
  br label %32

32:                                               ; preds = %3, %16
  %33 = call i32 @pthread_mutex_lock(ptr noundef nonnull %2) #16
  %34 = icmp eq i32 %33, 35
  br i1 %34, label %35, label %pmix_obj_update.exit

35:                                               ; preds = %32
  %36 = tail call ptr @__errno_location() #17
  store i32 35, ptr %36, align 4, !tbaa !3
  call void @perror(ptr noundef nonnull @.str.4) #18
  call void @abort() #19
  unreachable

pmix_obj_update.exit:                             ; preds = %32
  %37 = getelementptr inbounds nuw i8, ptr %2, i64 48
  %38 = load i32, ptr %37, align 8, !tbaa !16
  %39 = add nsw i32 %38, -1
  store i32 %39, ptr %37, align 8, !tbaa !16
  %40 = call i32 @pthread_mutex_unlock(ptr noundef nonnull %2) #16
  %41 = icmp eq i32 %39, 0
  br i1 %41, label %42, label %56

42:                                               ; preds = %pmix_obj_update.exit
  %43 = getelementptr inbounds nuw i8, ptr %2, i64 40
  %44 = load ptr, ptr %43, align 8, !tbaa !13
  %45 = getelementptr inbounds nuw i8, ptr %44, i64 48
  %46 = load ptr, ptr %45, align 8, !tbaa !36
  %47 = load ptr, ptr %46, align 8, !tbaa !18
  %.not6.i = icmp eq ptr %47, null
  br i1 %.not6.i, label %pmix_obj_run_destructors.exit, label %.lr.ph.i

.lr.ph.i:                                         ; preds = %42, %.lr.ph.i
  %48 = phi ptr [ %50, %.lr.ph.i ], [ %47, %42 ]
  %.07.i = phi ptr [ %49, %.lr.ph.i ], [ %46, %42 ]
  call void %48(ptr noundef nonnull %2) #16
  %49 = getelementptr inbounds nuw i8, ptr %.07.i, i64 8
  %50 = load ptr, ptr %49, align 8, !tbaa !18
  %.not.i = icmp eq ptr %50, null
  br i1 %.not.i, label %pmix_obj_run_destructors.exit, label %.lr.ph.i, !llvm.loop !37

pmix_obj_run_destructors.exit:                    ; preds = %.lr.ph.i, %42
  %51 = getelementptr inbounds nuw i8, ptr %2, i64 96
  %52 = load ptr, ptr %51, align 8, !tbaa !38
  %.not = icmp eq ptr %52, null
  br i1 %.not, label %55, label %53

53:                                               ; preds = %pmix_obj_run_destructors.exit
  %54 = getelementptr inbounds nuw i8, ptr %2, i64 56
  call void %52(ptr noundef nonnull %54, ptr noundef nonnull %2) #16
  br label %56

55:                                               ; preds = %pmix_obj_run_destructors.exit
  call void @free(ptr noundef nonnull %2) #16
  br label %56

56:                                               ; preds = %pmix_obj_update.exit, %55, %53, %14
  call void @llvm.lifetime.end.p0(i64 8, ptr nonnull %5) #16
  call void @llvm.lifetime.end.p0(i64 8, ptr nonnull %4) #16
  ret void
}